target datalayout = "e-m:e-p270:32:32-p271:32:32-p272:64:64-i64:64-i128:128-f80:128-n8:16:32:64-S128"
target triple = "x86_64-pc-linux-gnu"

%struct.PROXY_CERT_INFO_EXTENSION_st = type { ptr, ptr }
%struct.PROXY_POLICY_st = type { ptr, ptr }
%struct.CONF_VALUE = type { ptr, ptr, ptr }

@.str.6 = private unnamed_addr constant [32 x i8] c"../openssl/crypto/x509/v3_pci.c\00", align 1
@__func__.r2i_pci = private unnamed_addr constant [8 x i8] c"r2i_pci\00", align 1
@.str.7 = private unnamed_addr constant [9 x i8] c"section:\00", align 1
@.str.8 = private unnamed_addr constant [7 x i8] c",name:\00", align 1
@.str.9 = private unnamed_addr constant [8 x i8] c",value:\00", align 1

; Function Attrs: inlinehint nounwind uwtable
define internal ptr @ossl_check_CONF_VALUE_freefunc_type(ptr noundef %0) #3 {
  %2 = alloca ptr, align 8
  store ptr %0, ptr %2, align 8, !tbaa !35
  %3 = load ptr, ptr %2, align 8, !tbaa !35
  ret ptr %3
}

; Function Attrs: inlinehint nounwind uwtable
define internal ptr @ossl_check_CONF_VALUE_sk_type(ptr noundef %0) #3 {
  %2 = alloca ptr, align 8
  store ptr %0, ptr %2, align 8, !tbaa !33
  %3 = load ptr, ptr %2, align 8, !tbaa !33
  ret ptr %3
}

; Function Attrs: inlinehint nounwind uwtable
define internal ptr @ossl_check_const_CONF_VALUE_sk_type(ptr noundef %0) #3 {
  %2 = alloca ptr, align 8
  store ptr %0, ptr %2, align 8, !tbaa !33
  %3 = load ptr, ptr %2, align 8, !tbaa !33
  ret ptr %3
}

; Function Attrs: nounwind uwtable
define internal ptr @r2i_pci(ptr noundef %0, ptr noundef %1, ptr noundef %2) #1 {
  %4 = alloca ptr, align 8
  %5 = alloca ptr, align 8
  %6 = alloca ptr, align 8
  %7 = alloca ptr, align 8
  %8 = alloca ptr, align 8
  %9 = alloca ptr, align 8
  %10 = alloca ptr, align 8
  %11 = alloca ptr, align 8
  %12 = alloca ptr, align 8
  %13 = alloca i32, align 4
  %14 = alloca i32, align 4
  %15 = alloca ptr, align 8
  %16 = alloca ptr, align 8
  %17 = alloca i32, align 4
  %18 = alloca i32, align 4
  store ptr %0, ptr %5, align 8, !tbaa !3
  store ptr %1, ptr %6, align 8, !tbaa !28
  store ptr %2, ptr %7, align 8, !tbaa !30
  call void @llvm.lifetime.start.p0(i64 8, ptr %8) #6
  store ptr null, ptr %8, align 8, !tbaa !8
  call void @llvm.lifetime.start.p0(i64 8, ptr %9) #6
  call void @llvm.lifetime.start.p0(i64 8, ptr %10) #6
  store ptr null, ptr %10, align 8, !tbaa !31
  call void @llvm.lifetime.start.p0(i64 8, ptr %11) #6
  store ptr null, ptr %11, align 8, !tbaa !32
  call void @llvm.lifetime.start.p0(i64 8, ptr %12) #6
  store ptr null, ptr %12, align 8, !tbaa !32
  call void @llvm.lifetime.start.p0(i64 4, ptr %13) #6
  call void @llvm.lifetime.start.p0(i64 4, ptr %14) #6
  %19 = load ptr, ptr %7, align 8, !tbaa !30
  %20 = call ptr @X509V3_parse_list(ptr noundef %19)
  store ptr %20, ptr %9, align 8, !tbaa !33
  store i32 0, ptr %13, align 4, !tbaa !12
  br label %21

21:                                               ; preds = %134, %3
  %22 = load i32, ptr %13, align 4, !tbaa !12
  %23 = load ptr, ptr %9, align 8, !tbaa !33
  %24 = call ptr @ossl_check_const_CONF_VALUE_sk_type(ptr noundef %23)
  %25 = call i32 @OPENSSL_sk_num(ptr noundef %24)
  %26 = icmp slt i32 %22, %25
  br i1 %26, label %27, label %137

27:                                               ; preds = %21
  call void @llvm.lifetime.start.p0(i64 8, ptr %15) #6
  %28 = load ptr, ptr %9, align 8, !tbaa !33
  %29 = call ptr @ossl_check_const_CONF_VALUE_sk_type(ptr noundef %28)
  %30 = load i32, ptr %13, align 4, !tbaa !12
  %31 = call ptr @OPENSSL_sk_value(ptr noundef %29, i32 noundef %30)
  store ptr %31, ptr %15, align 8, !tbaa !35
  %32 = load ptr, ptr %15, align 8, !tbaa !35
  %33 = getelementptr inbounds nuw %struct.CONF_VALUE, ptr %32, i32 0, i32 1
  %34 = load ptr, ptr %33, align 8, !tbaa !36
  %35 = icmp ne ptr %34, null
  br i1 %35, label %36, label %48

36:                                               ; preds = %27
  %37 = load ptr, ptr %15, align 8, !tbaa !35
  %38 = getelementptr inbounds nuw %struct.CONF_VALUE, ptr %37, i32 0, i32 1
  %39 = load ptr, ptr %38, align 8, !tbaa !36
  %40 = load i8, ptr %39, align 1, !tbaa !38
  %41 = sext i8 %40 to i32
  %42 = icmp ne i32 %41, 64
  br i1 %42, label %43, label %58

43:                                               ; preds = %36
  %44 = load ptr, ptr %15, align 8, !tbaa !35
  %45 = getelementptr inbounds nuw %struct.CONF_VALUE, ptr %44, i32 0, i32 2
  %46 = load ptr, ptr %45, align 8, !tbaa !39
  %47 = icmp ne ptr %46, null
  br i1 %47, label %58, label %48

48:                                               ; preds = %43, %27
  call void @ERR_new()
  call void @ERR_set_debug(ptr noundef @.str.6, i32 noundef 251, ptr noundef @__func__.r2i_pci)
  call void (i32, i32, ptr, ...) @ERR_set_error(i32 noundef 34, i32 noundef 153, ptr noundef null)
  %49 = load ptr, ptr %15, align 8, !tbaa !35
  %50 = getelementptr inbounds nuw %struct.CONF_VALUE, ptr %49, i32 0, i32 0
  %51 = load ptr, ptr %50, align 8, !tbaa !40
  %52 = load ptr, ptr %15, align 8, !tbaa !35
  %53 = getelementptr inbounds nuw %struct.CONF_VALUE, ptr %52, i32 0, i32 1
  %54 = load ptr, ptr %53, align 8, !tbaa !36
  %55 = load ptr, ptr %15, align 8, !tbaa !35
  %56 = getelementptr inbounds nuw %struct.CONF_VALUE, ptr %55, i32 0, i32 2
  %57 = load ptr, ptr %56, align 8, !tbaa !39
  call void (i32, ...) @ERR_add_error_data(i32 noundef 6, ptr noundef @.str.7, ptr noundef %51, ptr noundef @.str.8, ptr noundef %54, ptr noundef @.str.9, ptr noundef %57)
  store i32 5, ptr %18, align 4
  br label %131

58:                                               ; preds = %43, %36
  %59 = load ptr, ptr %15, align 8, !tbaa !35
  %60 = getelementptr inbounds nuw %struct.CONF_VALUE, ptr %59, i32 0, i32 1
  %61 = load ptr, ptr %60, align 8, !tbaa !36
  %62 = load i8, ptr %61, align 1, !tbaa !38
  %63 = sext i8 %62 to i32
  %64 = icmp eq i32 %63, 64
  br i1 %64, label %65, label %115

65:                                               ; preds = %58
  call void @llvm.lifetime.start.p0(i64 8, ptr %16) #6
  call void @llvm.lifetime.start.p0(i64 4, ptr %17) #6
  store i32 1, ptr %17, align 4, !tbaa !12
  %66 = load ptr, ptr %6, align 8, !tbaa !28
  %67 = load ptr, ptr %15, align 8, !tbaa !35
  %68 = getelementptr inbounds nuw %struct.CONF_VALUE, ptr %67, i32 0, i32 1
  %69 = load ptr, ptr %68, align 8, !tbaa !36
  %70 = getelementptr inbounds i8, ptr %69, i64 1
  %71 = call ptr @X509V3_get_section(ptr noundef %66, ptr noundef %70)
  store ptr %71, ptr %16, align 8, !tbaa !33
  %72 = load ptr, ptr %16, align 8, !tbaa !33
  %73 = icmp ne ptr %72, null
  br i1 %73, label %84, label %74

74:                                               ; preds = %65
  call void @ERR_new()
  call void @ERR_set_debug(ptr noundef @.str.6, i32 noundef 261, ptr noundef @__func__.r2i_pci)
  call void (i32, i32, ptr, ...) @ERR_set_error(i32 noundef 34, i32 noundef 135, ptr noundef null)
  %75 = load ptr, ptr %15, align 8, !tbaa !35
  %76 = getelementptr inbounds nuw %struct.CONF_VALUE, ptr %75, i32 0, i32 0
  %77 = load ptr, ptr %76, align 8, !tbaa !40
  %78 = load ptr, ptr %15, align 8, !tbaa !35
  %79 = getelementptr inbounds nuw %struct.CONF_VALUE, ptr %78, i32 0, i32 1
  %80 = load ptr, ptr %79, align 8, !tbaa !36
  %81 = load ptr, ptr %15, align 8, !tbaa !35
  %82 = getelementptr inbounds nuw %struct.CONF_VALUE, ptr %81, i32 0, i32 2
  %83 = load ptr, ptr %82, align 8, !tbaa !39
  call void (i32, ...) @ERR_add_error_data(i32 noundef 6, ptr noundef @.str.7, ptr noundef %77, ptr noundef @.str.8, ptr noundef %80, ptr noundef @.str.9, ptr noundef %83)
  store i32 5, ptr %18, align 4
  br label %112

84:                                               ; preds = %65
  store i32 0, ptr %14, align 4, !tbaa !12
  br label %85

85:                                               ; preds = %102, %84
  %86 = load i32, ptr %17, align 4, !tbaa !12
  %87 = icmp ne i32 %86, 0
  br i1 %87, label %88, label %94

88:                                               ; preds = %85
  %89 = load i32, ptr %14, align 4, !tbaa !12
  %90 = load ptr, ptr %16, align 8, !tbaa !33
  %91 = call ptr @ossl_check_const_CONF_VALUE_sk_type(ptr noundef %90)
  %92 = call i32 @OPENSSL_sk_num(ptr noundef %91)
  %93 = icmp slt i32 %89, %92
  br label %94

94:                                               ; preds = %88, %85
  %95 = phi i1 [ false, %85 ], [ %93, %88 ]
  br i1 %95, label %96, label %105

96:                                               ; preds = %94
  %97 = load ptr, ptr %16, align 8, !tbaa !33
  %98 = call ptr @ossl_check_const_CONF_VALUE_sk_type(ptr noundef %97)
  %99 = load i32, ptr %14, align 4, !tbaa !12
  %100 = call ptr @OPENSSL_sk_value(ptr noundef %98, i32 noundef %99)
  %101 = call i32 @process_pci_value(ptr noundef %100, ptr noundef %10, ptr noundef %11, ptr noundef %12)
  store i32 %101, ptr %17, align 4, !tbaa !12
  br label %102

102:                                              ; preds = %96
  %103 = load i32, ptr %14, align 4, !tbaa !12
  %104 = add nsw i32 %103, 1
  store i32 %104, ptr %14, align 4, !tbaa !12
  br label %85, !llvm.loop !41

105:                                              ; preds = %94
  %106 = load ptr, ptr %6, align 8, !tbaa !28
  %107 = load ptr, ptr %16, align 8, !tbaa !33
  call void @X509V3_section_free(ptr noundef %106, ptr noundef %107)
  %108 = load i32, ptr %17, align 4, !tbaa !12
  %109 = icmp ne i32 %108, 0
  br i1 %109, label %111, label %110

110:                                              ; preds = %105
  store i32 5, ptr %18, align 4
  br label %112

111:                                              ; preds = %105
  store i32 0, ptr %18, align 4
  br label %112

112:                                              ; preds = %110, %74, %111
  call void @llvm.lifetime.end.p0(i64 4, ptr %17) #6
  call void @llvm.lifetime.end.p0(i64 8, ptr %16) #6
  %113 = load i32, ptr %18, align 4
  switch i32 %113, label %131 [
    i32 0, label %114
  ]

114:                                              ; preds = %112
  br label %130

115:                                              ; preds = %58
  %116 = load ptr, ptr %15, align 8, !tbaa !35
  %117 = call i32 @process_pci_value(ptr noundef %116, ptr noundef %10, ptr noundef %11, ptr noundef %12)
  %118 = icmp ne i32 %117, 0
  br i1 %118, label %129, label %119

119:                                              ; preds = %115
  %120 = load ptr, ptr %15, align 8, !tbaa !35
  %121 = getelementptr inbounds nuw %struct.CONF_VALUE, ptr %120, i32 0, i32 0
  %122 = load ptr, ptr %121, align 8, !tbaa !40
  %123 = load ptr, ptr %15, align 8, !tbaa !35
  %124 = getelementptr inbounds nuw %struct.CONF_VALUE, ptr %123, i32 0, i32 1
  %125 = load ptr, ptr %124, align 8, !tbaa !36
  %126 = load ptr, ptr %15, align 8, !tbaa !35
  %127 = getelementptr inbounds nuw %struct.CONF_VALUE, ptr %126, i32 0, i32 2
  %128 = load ptr, ptr %127, align 8, !tbaa !39
  call void (i32, ...) @ERR_add_error_data(i32 noundef 6, ptr noundef @.str.7, ptr noundef %122, ptr noundef @.str.8, ptr noundef %125, ptr noundef @.str.9, ptr noundef %128)
  store i32 5, ptr %18, align 4
  br label %131

129:                                              ; preds = %115
  br label %130

130:                                              ; preds = %129, %114
  store i32 0, ptr %18, align 4
  br label %131

131:                                              ; preds = %119, %48, %130, %112
  call void @llvm.lifetime.end.p0(i64 8, ptr %15) #6
  %132 = load i32, ptr %18, align 4
  switch i32 %132, label %182 [
    i32 0, label %133
    i32 5, label %172
  ]

133:                                              ; preds = %131
  br label %134

134:                                              ; preds = %133
  %135 = load i32, ptr %13, align 4, !tbaa !12
  %136 = add nsw i32 %135, 1
  store i32 %136, ptr %13, align 4, !tbaa !12
  br label %21, !llvm.loop !43

137:                                              ; preds = %21
  %138 = load ptr, ptr %10, align 8, !tbaa !31
  %139 = icmp ne ptr %138, null
  br i1 %139, label %141, label %140

140:                                              ; preds = %137
  call void @ERR_new()
  call void @ERR_set_debug(ptr noundef @.str.6, i32 noundef 284, ptr noundef @__func__.r2i_pci)
  call void (i32, i32, ptr, ...) @ERR_set_error(i32 noundef 34, i32 noundef 154, ptr noundef null)
  br label %172

141:                                              ; preds = %137
  %142 = load ptr, ptr %10, align 8, !tbaa !31
  %143 = call i32 @OBJ_obj2nid(ptr noundef %142)
  store i32 %143, ptr %13, align 4, !tbaa !12
  %144 = load i32, ptr %13, align 4, !tbaa !12
  %145 = icmp eq i32 %144, 667
  br i1 %145, label %149, label %146

146:                                              ; preds = %141
  %147 = load i32, ptr %13, align 4, !tbaa !12
  %148 = icmp eq i32 %147, 665
  br i1 %148, label %149, label %153

149:                                              ; preds = %146, %141
  %150 = load ptr, ptr %12, align 8, !tbaa !32
  %151 = icmp ne ptr %150, null
  br i1 %151, label %152, label %153

152:                                              ; preds = %149
  call void @ERR_new()
  call void @ERR_set_debug(ptr noundef @.str.6, i32 noundef 290, ptr noundef @__func__.r2i_pci)
  call void (i32, i32, ptr, ...) @ERR_set_error(i32 noundef 34, i32 noundef 159, ptr noundef null)
  br label %172

153:                                              ; preds = %149, %146
  %154 = call ptr @PROXY_CERT_INFO_EXTENSION_new()
  store ptr %154, ptr %8, align 8, !tbaa !8
  %155 = load ptr, ptr %8, align 8, !tbaa !8
  %156 = icmp eq ptr %155, null
  br i1 %156, label %157, label %158

157:                                              ; preds = %153
  call void @ERR_new()
  call void @ERR_set_debug(ptr noundef @.str.6, i32 noundef 296, ptr noundef @__func__.r2i_pci)
  call void (i32, i32, ptr, ...) @ERR_set_error(i32 noundef 34, i32 noundef 524301, ptr noundef null)
  br label %172

158:                                              ; preds = %153
  %159 = load ptr, ptr %10, align 8, !tbaa !31
  %160 = load ptr, ptr %8, align 8, !tbaa !8
  %161 = getelementptr inbounds nuw %struct.PROXY_CERT_INFO_EXTENSION_st, ptr %160, i32 0, i32 1
  %162 = load ptr, ptr %161, align 8, !tbaa !18
  %163 = getelementptr inbounds nuw %struct.PROXY_POLICY_st, ptr %162, i32 0, i32 0
  store ptr %159, ptr %163, align 8, !tbaa !19
  store ptr null, ptr %10, align 8, !tbaa !31
  %164 = load ptr, ptr %12, align 8, !tbaa !32
  %165 = load ptr, ptr %8, align 8, !tbaa !8
  %166 = getelementptr inbounds nuw %struct.PROXY_CERT_INFO_EXTENSION_st, ptr %165, i32 0, i32 1
  %167 = load ptr, ptr %166, align 8, !tbaa !18
  %168 = getelementptr inbounds nuw %struct.PROXY_POLICY_st, ptr %167, i32 0, i32 1
  store ptr %164, ptr %168, align 8, !tbaa !22
  store ptr null, ptr %12, align 8, !tbaa !32
  %169 = load ptr, ptr %11, align 8, !tbaa !32
  %170 = load ptr, ptr %8, align 8, !tbaa !8
  %171 = getelementptr inbounds nuw %struct.PROXY_CERT_INFO_EXTENSION_st, ptr %170, i32 0, i32 0
  store ptr %169, ptr %171, align 8, !tbaa !14
  store ptr null, ptr %11, align 8, !tbaa !32
  br label %177

172:                                              ; preds = %131, %157, %152, %140
  %173 = load ptr, ptr %10, align 8, !tbaa !31
  call void @ASN1_OBJECT_free(ptr noundef %173)
  %174 = load ptr, ptr %11, align 8, !tbaa !32
  call void @ASN1_INTEGER_free(ptr noundef %174)
  store ptr null, ptr %11, align 8, !tbaa !32
  %175 = load ptr, ptr %12, align 8, !tbaa !32
  call void @ASN1_OCTET_STRING_free(ptr noundef %175)
  store ptr null, ptr %12, align 8, !tbaa !32
  %176 = load ptr, ptr %8, align 8, !tbaa !8
  call void @PROXY_CERT_INFO_EXTENSION_free(ptr noundef %176)
  store ptr null, ptr %8, align 8, !tbaa !8
  br label %177

177:                                              ; preds = %172, %158
  %178 = load ptr, ptr %9, align 8, !tbaa !33
  %179 = call ptr @ossl_check_CONF_VALUE_sk_type(ptr noundef %178)
  %180 = call ptr @ossl_check_CONF_VALUE_freefunc_type(ptr noundef @X509V3_conf_free)
  call void @OPENSSL_sk_pop_free(ptr noundef %179, ptr noundef %180)
  %181 = load ptr, ptr %8, align 8, !tbaa !8
  store ptr %181, ptr %4, align 8
  store i32 1, ptr %18, align 4
  br label %182

182:                                              ; preds = %177, %131
  call void @llvm.lifetime.end.p0(i64 4, ptr %14) #6
  call void @llvm.lifetime.end.p0(i64 4, ptr %13) #6
  call void @llvm.lifetime.end.p0(i64 8, ptr %12) #6
  call void @llvm.lifetime.end.p0(i64 8, ptr %11) #6
  call void @llvm.lifetime.end.p0(i64 8, ptr %10) #6
  call void @llvm.lifetime.end.p0(i64 8, ptr %9) #6
  call void @llvm.lifetime.end.p0(i64 8, ptr %8) #6
  %183 = load ptr, ptr %4, align 8
  ret ptr %183
}