; Function Attrs: nounwind uwtable
define internal ptr @r2i_pci(ptr readnone captures(none) %0, ptr noundef %1, ptr noundef %2) #1 {
  %4 = alloca ptr, align 8
  %5 = alloca ptr, align 8
  %6 = alloca ptr, align 8
  call void @llvm.lifetime.start.p0(i64 8, ptr nonnull %4) #5
  store ptr null, ptr %4, align 8, !tbaa !21
  call void @llvm.lifetime.start.p0(i64 8, ptr nonnull %5) #5
  store ptr null, ptr %5, align 8, !tbaa !22
  call void @llvm.lifetime.start.p0(i64 8, ptr nonnull %6) #5
  store ptr null, ptr %6, align 8, !tbaa !22
  %7 = tail call ptr @X509V3_parse_list(ptr noundef %2) #5
  %8 = tail call i32 @OPENSSL_sk_num(ptr noundef %7) #5
  %9 = icmp sgt i32 %8, 0
  br i1 %9, label %.lr.ph, label %._crit_edge.thread

.lr.ph:                                           ; preds = %3, %46
  %.05185 = phi i32 [ %47, %46 ], [ 0, %3 ]
  %10 = call ptr @OPENSSL_sk_value(ptr noundef %7, i32 noundef %.05185) #5
  %11 = getelementptr inbounds nuw i8, ptr %10, i64 8
  %12 = load ptr, ptr %11, align 8, !tbaa !23
  %.not57 = icmp eq ptr %12, null
  br i1 %.not57, label %18, label %13

13:                                               ; preds = %.lr.ph
  %14 = load i8, ptr %12, align 1, !tbaa !25
  %.not58 = icmp eq i8 %14, 64
  br i1 %.not58, label %24, label %15

15:                                               ; preds = %13
  %16 = getelementptr inbounds nuw i8, ptr %10, i64 16
  %17 = load ptr, ptr %16, align 8, !tbaa !26
  %.not59 = icmp eq ptr %17, null
  br i1 %.not59, label %18, label %38

18:                                               ; preds = %15, %.lr.ph
  %19 = getelementptr inbounds nuw i8, ptr %10, i64 8
  call void @ERR_new() #5
  call void @ERR_set_debug(ptr noundef nonnull @.str.6, i32 noundef 251, ptr noundef nonnull @__func__.r2i_pci) #5
  call void (i32, i32, ptr, ...) @ERR_set_error(i32 noundef 34, i32 noundef 153, ptr noundef null) #5
  %20 = load ptr, ptr %10, align 8, !tbaa !27
  %21 = load ptr, ptr %19, align 8, !tbaa !23
  %22 = getelementptr inbounds nuw i8, ptr %10, i64 16
  %23 = load ptr, ptr %22, align 8, !tbaa !26
  call void (i32, ...) @ERR_add_error_data(i32 noundef 6, ptr noundef nonnull @.str.7, ptr noundef %20, ptr noundef nonnull @.str.8, ptr noundef %21, ptr noundef nonnull @.str.9, ptr noundef %23) #5
  br label %.thread70

24:                                               ; preds = %13
  %25 = getelementptr inbounds nuw i8, ptr %12, i64 1
  %26 = call ptr @X509V3_get_section(ptr noundef %1, ptr noundef nonnull %25) #5
  %.not61 = icmp eq ptr %26, null
  br i1 %.not61, label %.thread64, label %.preheader

.thread64:                                        ; preds = %24
  %27 = getelementptr inbounds nuw i8, ptr %10, i64 8
  call void @ERR_new() #5
  call void @ERR_set_debug(ptr noundef nonnull @.str.6, i32 noundef 261, ptr noundef nonnull @__func__.r2i_pci) #5
  call void (i32, i32, ptr, ...) @ERR_set_error(i32 noundef 34, i32 noundef 135, ptr noundef null) #5
  %28 = load ptr, ptr %10, align 8, !tbaa !27
  %29 = load ptr, ptr %27, align 8, !tbaa !23
  %30 = getelementptr inbounds nuw i8, ptr %10, i64 16
  %31 = load ptr, ptr %30, align 8, !tbaa !26
  call void (i32, ...) @ERR_add_error_data(i32 noundef 6, ptr noundef nonnull @.str.7, ptr noundef %28, ptr noundef nonnull @.str.8, ptr noundef %29, ptr noundef nonnull @.str.9, ptr noundef %31) #5
  br label %.thread70

.preheader:                                       ; preds = %24, %34
  %.05081 = phi i32 [ %37, %34 ], [ 0, %24 ]
  %32 = call i32 @OPENSSL_sk_num(ptr noundef nonnull %26) #5
  %33 = icmp slt i32 %.05081, %32
  br i1 %33, label %34, label %.thread67

.thread67:                                        ; preds = %.preheader
  call void @X509V3_section_free(ptr noundef %1, ptr noundef nonnull %26) #5
  br label %46

34:                                               ; preds = %.preheader
  %35 = call ptr @OPENSSL_sk_value(ptr noundef nonnull %26, i32 noundef %.05081) #5
  %36 = call fastcc i32 @process_pci_value(ptr noundef %35, ptr noundef %4, ptr noundef %5, ptr noundef %6)
  %37 = add nuw nsw i32 %.05081, 1
  %.not62 = icmp eq i32 %36, 0
  br i1 %.not62, label %select.unfold, label %.preheader, !llvm.loop !28

38:                                               ; preds = %15
  %39 = call fastcc i32 @process_pci_value(ptr noundef nonnull %10, ptr noundef %4, ptr noundef %5, ptr noundef %6)
  %.not60 = icmp eq i32 %39, 0
  br i1 %.not60, label %40, label %46

40:                                               ; preds = %38
  %41 = getelementptr inbounds nuw i8, ptr %10, i64 8
  %42 = getelementptr inbounds nuw i8, ptr %10, i64 16
  %43 = load ptr, ptr %10, align 8, !tbaa !27
  %44 = load ptr, ptr %41, align 8, !tbaa !23
  %45 = load ptr, ptr %42, align 8, !tbaa !26
  call void (i32, ...) @ERR_add_error_data(i32 noundef 6, ptr noundef nonnull @.str.7, ptr noundef %43, ptr noundef nonnull @.str.8, ptr noundef %44, ptr noundef nonnull @.str.9, ptr noundef %45) #5
  br label %.thread70

select.unfold:                                    ; preds = %34
  call void @X509V3_section_free(ptr noundef %1, ptr noundef nonnull %26) #5
  br label %.thread70

46:                                               ; preds = %.thread67, %38
  %47 = add nuw nsw i32 %.05185, 1
  %48 = call i32 @OPENSSL_sk_num(ptr noundef %7) #5
  %49 = icmp slt i32 %47, %48
  br i1 %49, label %.lr.ph, label %._crit_edge, !llvm.loop !30

._crit_edge:                                      ; preds = %46
  %.pre = load ptr, ptr %4, align 8, !tbaa !21
  %.not = icmp eq ptr %.pre, null
  br i1 %.not, label %._crit_edge.thread, label %50

._crit_edge.thread:                               ; preds = %3, %._crit_edge
  call void @ERR_new() #5
  call void @ERR_set_debug(ptr noundef nonnull @.str.6, i32 noundef 284, ptr noundef nonnull @__func__.r2i_pci) #5
  call void (i32, i32, ptr, ...) @ERR_set_error(i32 noundef 34, i32 noundef 154, ptr noundef null) #5
  br label %.thread70

50:                                               ; preds = %._crit_edge
  %51 = call i32 @OBJ_obj2nid(ptr noundef nonnull %.pre) #5
  %52 = and i32 %51, -3
  %or.cond = icmp eq i32 %52, 665
  %53 = load ptr, ptr %6, align 8
  %54 = icmp ne ptr %53, null
  %or.cond3 = select i1 %or.cond, i1 %54, i1 false
  br i1 %or.cond3, label %55, label %56

55:                                               ; preds = %50
  call void @ERR_new() #5
  call void @ERR_set_debug(ptr noundef nonnull @.str.6, i32 noundef 290, ptr noundef nonnull @__func__.r2i_pci) #5
  call void (i32, i32, ptr, ...) @ERR_set_error(i32 noundef 34, i32 noundef 159, ptr noundef null) #5
  br label %.thread70

56:                                               ; preds = %50
  %57 = call ptr @PROXY_CERT_INFO_EXTENSION_new() #5
  %58 = icmp eq ptr %57, null
  br i1 %58, label %59, label %60

59:                                               ; preds = %56
  call void @ERR_new() #5
  call void @ERR_set_debug(ptr noundef nonnull @.str.6, i32 noundef 296, ptr noundef nonnull @__func__.r2i_pci) #5
  call void (i32, i32, ptr, ...) @ERR_set_error(i32 noundef 34, i32 noundef 524301, ptr noundef null) #5
  br label %.thread70

60:                                               ; preds = %56
  %61 = getelementptr inbounds nuw i8, ptr %57, i64 8
  %62 = load ptr, ptr %61, align 8, !tbaa !10
  store ptr %.pre, ptr %62, align 8, !tbaa !11
  %63 = getelementptr inbounds nuw i8, ptr %62, i64 8
  store ptr %53, ptr %63, align 8, !tbaa !14
  %64 = load ptr, ptr %5, align 8, !tbaa !22
  store ptr %64, ptr %57, align 8, !tbaa !3
  store ptr null, ptr %5, align 8, !tbaa !22
  br label %68

.thread70:                                        ; preds = %select.unfold, %.thread64, %18, %40, %59, %55, %._crit_edge.thread
  %65 = load ptr, ptr %4, align 8, !tbaa !21
  call void @ASN1_OBJECT_free(ptr noundef %65) #5
  %66 = load ptr, ptr %5, align 8, !tbaa !22
  call void @ASN1_INTEGER_free(ptr noundef %66) #5
  store ptr null, ptr %5, align 8, !tbaa !22
  %67 = load ptr, ptr %6, align 8, !tbaa !22
  call void @ASN1_OCTET_STRING_free(ptr noundef %67) #5
  call void @PROXY_CERT_INFO_EXTENSION_free(ptr noundef null) #5
  br label %68

68:                                               ; preds = %60, %.thread70
  %.149 = phi ptr [ null, %.thread70 ], [ %57, %60 ]
  call void @OPENSSL_sk_pop_free(ptr noundef %7, ptr noundef nonnull @X509V3_conf_free) #5
  call void @llvm.lifetime.end.p0(i64 8, ptr nonnull %6) #5
  call void @llvm.lifetime.end.p0(i64 8, ptr nonnull %5) #5
  call void @llvm.lifetime.end.p0(i64 8, ptr nonnull %4) #5
  ret ptr %.149
}